Certificate:
    Data:
        Version: 3 (0x2)
        Serial Number: 2 (0x2)
    Signature Algorithm: sha256WithRSAEncryption
        Issuer: C=FR, ST=Radius, L=Somewhere, O=Example Inc./emailAddress=admin@example.org, CN=Example Certificate Authority
        Validity
            Not Before: Aug 10 15:32:50 2016 GMT
            Not After : Aug  8 15:32:50 2026 GMT
        Subject: C=FR, ST=Radius, O=Example Inc., CN=user@example.org/emailAddress=user@example.org
        Subject Public Key Info:
            Public Key Algorithm: rsaEncryption
                Public-Key: (2048 bit)
                Modulus:
                    00:ec:c3:83:4f:bb:b6:a1:bd:35:3a:d8:ce:d5:2d:
                    b5:00:a4:92:da:be:ee:e5:99:54:f9:09:49:64:c9:
                    1b:04:7c:04:07:e4:a6:8e:12:d5:e2:28:da:b6:36:
                    20:8a:6e:e6:48:bc:cc:b8:e7:7b:9e:2b:7e:4d:3d:
                    03:b5:57:11:be:a5:8a:df:a1:15:c3:3a:ef:86:97:
                    26:e6:a6:a2:f1:c2:35:c4:b3:fa:5c:0a:5c:c1:22:
                    34:5a:cb:9c:f9:78:fb:2e:e5:d3:89:d7:f1:60:39:
                    a2:a6:df:20:d8:38:5e:3f:83:8c:ba:83:05:54:f5:
                    d9:97:69:87:be:69:3b:62:91:c5:4b:6b:e2:c9:79:
                    db:42:b3:cb:09:84:98:dc:df:03:f3:0e:3a:41:65:
                    6f:2a:7b:7d:34:44:3f:48:b9:1c:61:5a:40:6f:e1:
                    1d:01:c8:91:a6:a2:ec:f0:0a:68:c4:e3:62:ac:c2:
                    6f:30:0b:d8:6f:9f:2e:d7:01:10:0c:28:6f:9e:3c:
                    8f:e0:27:72:8d:04:c6:30:66:a2:04:80:92:3d:9c:
                    68:e8:3b:86:e1:a5:94:4f:05:8f:30:e0:b4:6d:ae:
                    dc:f8:54:6a:fe:bb:64:5e:ef:05:fd:b9:e7:15:be:
                    ba:60:da:e6:4c:fc:a2:73:4e:a6:0f:6a:1d:e9:f9:
                    8c:77
                Exponent: 65537 (0x10001)
        X509v3 extensions:
            X509v3 Extended Key Usage: 
                TLS Web Client Authentication
            X509v3 CRL Distribution Points: 

                Full Name:
                  URI:http://www.example.com/example_ca.crl

    Signature Algorithm: sha256WithRSAEncryption
         9c:c0:33:3c:6e:e7:a0:41:4b:fa:68:67:9a:8c:8a:b6:01:5d:
         c4:b6:e9:a4:cf:55:16:7c:55:34:27:6a:c8:42:02:09:bb:61:
         27:33:15:4f:1a:fd:9d:3a:a5:55:eb:31:4d:d8:e4:14:6b:82:
         40:f8:12:61:ee:0c:89:30:0d:01:3d:fe:00:46:cf:8e:dd:35:
         ff:3a:5b:2f:f9:47:19:0e:bf:8b:5c:8b:63:98:ce:36:ff:23:
         ae:3a:22:76:01:bf:10:6d:3d:c5:43:66:ed:00:dc:44:94:25:
         bf:4e:82:a4:41:61:dc:52:1e:3d:a6:47:d8:a4:84:17:0d:4c:
         cc:d1:63:1a:c8:94:cc:65:57:e0:5c:45:ed:bf:8a:3f:ef:d4:
         30:8d:b8:f4:81:39:9e:a5:f1:5b:20:ae:ed:9e:9d:55:c1:9f:
         dc:51:c7:e2:c8:1f:2f:ac:68:da:9c:69:4f:7f:6b:89:f2:72:
         e9:c6:52:bd:e5:70:b9:89:9c:3a:91:86:6b:86:75:1b:24:03:
         d3:ed:c9:f2:a9:67:ca:e2:fb:38:01:e8:6d:05:02:31:f9:5a:
         9e:f9:86:a7:0f:b8:db:90:4b:7e:7f:e3:69:fe:49:33:06:8b:
         4a:ad:b1:c8:82:77:24:aa:f5:9b:b2:79:f9:70:db:72:26:9a:
         a9:3a:b5:8a
-----BEGIN CERTIFICATE-----
MIIDzzCCAregAwIBAgIBAjANBgkqhkiG9w0BAQsFADCBkzELMAkGA1UEBhMCRlIx
DzANBgNVBAgMBlJhZGl1czESMBAGA1UEBwwJU29tZXdoZXJlMRUwEwYDVQQKDAxF
eGFtcGxlIEluYy4xIDAeBgkqhkiG9w0BCQEWEWFkbWluQGV4YW1wbGUub3JnMSYw
JAYDVQQDDB1FeGFtcGxlIENlcnRpZmljYXRlIEF1dGhvcml0eTAeFw0xNjA4MTAx
NTMyNTBaFw0yNjA4MDgxNTMyNTBaMHExCzAJBgNVBAYTAkZSMQ8wDQYDVQQIDAZS
YWRpdXMxFTATBgNVBAoMDEV4YW1wbGUgSW5jLjEZMBcGA1UEAwwQdXNlckBleGFt
cGxlLm9yZzEfMB0GCSqGSIb3DQEJARYQdXNlckBleGFtcGxlLm9yZzCCASIwDQYJ
KoZIhvcNAQEBBQADggEPADCCAQoCggEBAOzDg0+7tqG9NTrYztUttQCkktq+7uWZ
VPkJSWTJGwR8BAfkpo4S1eIo2rY2IIpu5ki8zLjne54rfk09A7VXEb6lit+hFcM6
74aXJuamovHCNcSz+lwKXMEiNFrLnPl4+y7l04nX8WA5oqbfINg4Xj+DjLqDBVT1
2Zdph75pO2KRxUtr4sl520KzywmEmNzfA/MOOkFlbyp7fTREP0i5HGFaQG/hHQHI
kaai7PAKaMTjYqzCbzAL2G+fLtcBEAwob548j+Anco0ExjBmogSAkj2caOg7huGl
lE8FjzDgtG2u3PhUav67ZF7vBf255xW+umDa5kz8onNOpg9qHen5jHcCAwEAAaNP
ME0wEwYDVR0lBAwwCgYIKwYBBQUHAwIwNgYDVR0fBC8wLTAroCmgJ4YlaHR0cDov
L3d3dy5leGFtcGxlLmNvbS9leGFtcGxlX2NhLmNybDANBgkqhkiG9w0BAQsFAAOC
AQEAnMAzPG7noEFL+mhnmoyKtgFdxLbppM9VFnxVNCdqyEICCbthJzMVTxr9nTql
VesxTdjkFGuCQPgSYe4MiTANAT3+AEbPjt01/zpbL/lHGQ6/i1yLY5jONv8jrjoi
dgG/EG09xUNm7QDcRJQlv06CpEFh3FIePaZH2KSEFw1MzNFjGsiUzGVX4FxF7b+K
P+/UMI249IE5nqXxWyCu7Z6dVcGf3FHH4sgfL6xo2pxpT39rifJy6cZSveVwuYmc
OpGGa4Z1GyQD0+3J8qlnyuL7OAHobQUCMflanvmGpw+425BLfn/jaf5JMwaLSq2x
yIJ3JKr1m7J5+XDbciaaqTq1ig==
-----END CERTIFICATE-----
