Certificate:
    Data:
        Version: 3 (0x2)
        Serial Number: 1 (0x1)
    Signature Algorithm: sha256WithRSAEncryption
        Issuer: CN=deepin-qa-team
        Validity
            Not Before: Aug  8 16:06:09 2016 GMT
            Not After : Aug  6 16:06:09 2026 GMT
        Subject: CN=server
        Subject Public Key Info:
            Public Key Algorithm: rsaEncryption
                Public-Key: (2048 bit)
                Modulus:
                    00:cc:15:32:54:28:25:39:dc:70:ad:e9:fc:57:7a:
                    4d:9a:e1:e6:42:d6:86:0c:ff:a0:e3:bd:77:2b:d8:
                    86:9e:48:e9:92:21:47:8a:0c:ca:63:7a:22:e7:d2:
                    3b:72:fa:5b:5e:b5:58:63:e0:84:94:91:f7:ac:8e:
                    c0:15:7a:25:8f:1a:a4:5f:1c:3f:4f:18:a3:d7:ec:
                    e3:ab:b4:16:af:fe:9f:77:9d:e3:60:b2:e2:ef:f0:
                    e3:e6:f4:f4:b4:60:a7:75:fb:11:23:a7:02:7d:35:
                    4a:25:69:ab:35:a5:ae:51:59:3c:5a:01:b3:dd:89:
                    18:c7:a8:74:3e:3b:e7:52:7b:0e:38:21:d9:ff:e9:
                    a1:3d:bd:14:fb:4d:82:37:20:de:f7:d7:12:0d:d1:
                    9c:82:9b:f3:20:23:ee:e8:af:ec:5a:23:91:27:83:
                    55:a3:1d:13:e6:28:0f:3d:b4:be:d4:dc:4f:4f:a8:
                    c4:54:02:f4:e6:5f:55:8c:5e:41:15:20:90:da:7c:
                    ab:14:07:6a:3d:96:1c:4d:44:6a:3f:90:70:3e:87:
                    69:04:88:93:c7:77:97:41:ad:1a:cf:7a:dc:b5:3c:
                    4a:81:50:ff:95:84:39:a2:e4:99:e8:49:6d:b1:ce:
                    f4:34:d4:08:fd:ac:79:ec:be:2d:3a:50:40:7c:37:
                    ae:f7
                Exponent: 65537 (0x10001)
        X509v3 extensions:
            X509v3 Basic Constraints: 
                CA:FALSE
            X509v3 Subject Key Identifier: 
                F2:6B:5B:81:BE:7F:CC:A8:87:1A:6A:4C:FE:B1:AA:7C:DA:A0:76:03
            X509v3 Authority Key Identifier: 
                keyid:27:7E:60:9A:FF:0A:4A:3E:CB:36:38:30:34:9D:2D:D8:09:43:D3:B5
                DirName:/CN=deepin-qa-team
                serial:DC:19:04:FA:32:A4:72:F4

            X509v3 Extended Key Usage: 
                TLS Web Server Authentication
            X509v3 Key Usage: 
                Digital Signature, Key Encipherment
    Signature Algorithm: sha256WithRSAEncryption
         85:36:d6:eb:db:13:34:52:5b:94:dc:32:71:a6:be:b1:27:18:
         8c:58:36:54:29:8b:e7:eb:26:f5:bc:ce:34:b2:79:c9:68:27:
         c4:8e:fe:44:e7:c8:50:1e:c9:ff:c4:f2:0a:ee:63:cc:c8:63:
         a3:a8:1e:14:40:8a:65:3b:4d:cd:ac:d8:64:de:fa:aa:fb:a1:
         09:c7:bb:ab:7a:80:af:4f:25:60:3b:95:6e:0f:f2:f9:3a:99:
         8f:4e:a4:67:dd:41:71:fa:04:3e:fb:d0:fd:8e:7b:f0:0c:b8:
         38:e6:c7:59:f3:e8:fb:fd:f7:aa:65:53:83:f3:63:8c:8f:6f:
         2c:b6:80:3a:44:55:8a:4c:64:92:29:8c:2a:44:f4:35:25:3b:
         42:be:4e:1f:d2:ba:c4:35:95:cc:f2:12:7e:6a:a4:6a:fd:67:
         15:9d:b7:ce:94:05:6d:17:90:83:a2:e0:a1:36:29:17:dd:b4:
         51:68:fc:54:64:a9:f0:8e:20:71:4d:3c:f5:e3:ea:9e:ce:f8:
         bd:31:e9:98:8e:a8:b4:17:03:8b:3b:5b:6e:dd:27:55:26:1b:
         3c:1b:d7:c9:ba:8b:34:f3:6b:34:13:ed:9f:3d:e9:19:f0:3a:
         f5:95:56:5c:c4:24:ae:4c:ab:53:49:96:40:35:3f:07:48:dd:
         b6:6d:02:10
-----BEGIN CERTIFICATE-----
MIIDQDCCAiigAwIBAgIBATANBgkqhkiG9w0BAQsFADAZMRcwFQYDVQQDDA5kZWVw
aW4tcWEtdGVhbTAeFw0xNjA4MDgxNjA2MDlaFw0yNjA4MDYxNjA2MDlaMBExDzAN
BgNVBAMMBnNlcnZlcjCCASIwDQYJKoZIhvcNAQEBBQADggEPADCCAQoCggEBAMwV
MlQoJTnccK3p/Fd6TZrh5kLWhgz/oOO9dyvYhp5I6ZIhR4oMymN6IufSO3L6W161
WGPghJSR96yOwBV6JY8apF8cP08Yo9fs46u0Fq/+n3ed42Cy4u/w4+b09LRgp3X7
ESOnAn01SiVpqzWlrlFZPFoBs92JGMeodD4751J7Djgh2f/poT29FPtNgjcg3vfX
Eg3RnIKb8yAj7uiv7FojkSeDVaMdE+YoDz20vtTcT0+oxFQC9OZfVYxeQRUgkNp8
qxQHaj2WHE1Eaj+QcD6HaQSIk8d3l0GtGs963LU8SoFQ/5WEOaLkmehJbbHO9DTU
CP2seey+LTpQQHw3rvcCAwEAAaOBmjCBlzAJBgNVHRMEAjAAMB0GA1UdDgQWBBTy
a1uBvn/MqIcaakz+sap82qB2AzBJBgNVHSMEQjBAgBQnfmCa/wpKPss2ODA0nS3Y
CUPTtaEdpBswGTEXMBUGA1UEAwwOZGVlcGluLXFhLXRlYW2CCQDcGQT6MqRy9DAT
BgNVHSUEDDAKBggrBgEFBQcDATALBgNVHQ8EBAMCBaAwDQYJKoZIhvcNAQELBQAD
ggEBAIU21uvbEzRSW5TcMnGmvrEnGIxYNlQpi+frJvW8zjSyecloJ8SO/kTnyFAe
yf/E8gruY8zIY6OoHhRAimU7Tc2s2GTe+qr7oQnHu6t6gK9PJWA7lW4P8vk6mY9O
pGfdQXH6BD770P2Oe/AMuDjmx1nz6Pv996plU4PzY4yPbyy2gDpEVYpMZJIpjCpE
9DUlO0K+Th/SusQ1lczyEn5qpGr9ZxWdt86UBW0XkIOi4KE2KRfdtFFo/FRkqfCO
IHFNPPXj6p7O+L0x6ZiOqLQXA4s7W27dJ1UmGzwb18m6izTzazQT7Z896RnwOvWV
VlzEJK5Mq1NJlkA1PwdI3bZtAhA=
-----END CERTIFICATE-----
