Certificate:
    Data:
        Version: 3 (0x2)
        Serial Number: 2 (0x2)
    Signature Algorithm: sha256WithRSAEncryption
        Issuer: CN=deepin-qa-team
        Validity
            Not Before: Aug  8 16:44:20 2016 GMT
            Not After : Aug  6 16:44:20 2026 GMT
        Subject: CN=client
        Subject Public Key Info:
            Public Key Algorithm: rsaEncryption
                Public-Key: (2048 bit)
                Modulus:
                    00:ce:f5:8d:56:8e:29:e9:d3:7f:6e:89:f8:ec:59:
                    2f:25:1b:a3:4d:d4:d9:7e:a6:b1:f9:88:de:a7:3b:
                    a1:8b:6f:80:e7:e9:7b:2b:a0:18:c7:33:47:ea:b8:
                    4c:01:1e:43:2d:35:1e:89:eb:e0:61:6e:55:9b:88:
                    1f:cb:b5:68:87:71:b5:88:96:db:8a:ce:33:10:a7:
                    bf:6f:84:12:c3:d9:4e:3e:0d:28:42:43:b2:4a:81:
                    9d:f4:16:17:f8:5e:83:81:97:ae:3e:b9:0b:40:8f:
                    9f:1b:98:b2:7d:55:a9:08:31:12:93:58:21:78:4b:
                    9d:82:38:9a:08:69:00:49:01:ad:4f:c6:7f:9e:74:
                    a9:da:0d:46:34:4a:18:0d:05:cf:28:c5:52:0b:ac:
                    cd:68:9f:db:fa:1b:03:be:f7:38:fb:7c:8b:c0:b0:
                    12:6c:69:41:f9:21:5f:88:ff:5f:9d:7a:0c:14:a7:
                    f3:b0:e4:5e:4c:56:0d:eb:61:7c:68:18:cf:bf:fd:
                    cb:bb:79:20:89:da:79:46:c0:80:d3:08:19:ad:ae:
                    a8:d0:cc:57:f1:97:6e:63:24:b2:8d:4f:93:75:eb:
                    d9:11:15:d0:be:f8:b8:4c:d4:08:84:35:a8:8c:3a:
                    fe:e2:ad:8e:54:dd:dd:00:a2:db:ed:29:c3:18:12:
                    e4:1f
                Exponent: 65537 (0x10001)
        X509v3 extensions:
            X509v3 Basic Constraints: 
                CA:FALSE
            X509v3 Subject Key Identifier: 
                74:18:C9:F9:A3:F0:94:0F:2E:BD:5D:5F:BE:21:47:05:9C:D5:FE:F7
            X509v3 Authority Key Identifier: 
                keyid:27:7E:60:9A:FF:0A:4A:3E:CB:36:38:30:34:9D:2D:D8:09:43:D3:B5
                DirName:/CN=deepin-qa-team
                serial:DC:19:04:FA:32:A4:72:F4

            X509v3 Extended Key Usage: 
                TLS Web Client Authentication
            X509v3 Key Usage: 
                Digital Signature
    Signature Algorithm: sha256WithRSAEncryption
         5b:50:29:a0:50:0d:bc:7a:e6:2f:3b:05:a5:f3:97:b1:88:af:
         56:89:cc:b4:56:41:4c:9e:33:db:75:43:3d:4c:07:2c:29:3c:
         53:27:5b:e6:30:4f:61:64:5c:c1:67:5c:be:be:65:20:2c:29:
         38:85:52:2b:8c:01:5a:b5:cf:ae:ef:b7:4a:e6:64:e0:e6:94:
         5e:35:68:e0:fd:c3:1d:62:28:27:8a:41:c9:2c:db:4f:ff:89:
         1e:ad:40:9a:91:b3:9e:71:1b:97:89:5d:08:81:9d:db:be:dc:
         9a:90:02:b6:f1:00:49:de:77:6c:ce:fc:21:de:a0:44:ef:f4:
         a4:68:4f:72:81:61:8f:35:34:d5:0f:61:6f:fa:b8:76:7a:4a:
         fa:db:62:c3:6b:7b:59:72:96:ab:95:8b:b5:fd:d8:06:26:64:
         fb:b9:38:cc:f4:b2:de:9e:0f:55:fa:85:b9:d9:d8:53:f4:26:
         2b:3b:cd:96:f9:95:54:93:4b:cc:d0:d8:90:ef:06:db:20:91:
         13:de:51:97:9e:0f:dd:21:1c:b8:2c:bb:b6:7b:49:0c:77:3b:
         68:49:cf:6e:32:a4:e7:42:f6:d1:7e:1d:59:5a:6b:03:64:1f:
         a2:a2:32:dc:e2:e5:f9:0f:8d:d3:fd:a5:11:c9:b3:51:c5:51:
         d7:b9:06:c5
-----BEGIN CERTIFICATE-----
MIIDQDCCAiigAwIBAgIBAjANBgkqhkiG9w0BAQsFADAZMRcwFQYDVQQDDA5kZWVw
aW4tcWEtdGVhbTAeFw0xNjA4MDgxNjQ0MjBaFw0yNjA4MDYxNjQ0MjBaMBExDzAN
BgNVBAMMBmNsaWVudDCCASIwDQYJKoZIhvcNAQEBBQADggEPADCCAQoCggEBAM71
jVaOKenTf26J+OxZLyUbo03U2X6msfmI3qc7oYtvgOfpeyugGMczR+q4TAEeQy01
Honr4GFuVZuIH8u1aIdxtYiW24rOMxCnv2+EEsPZTj4NKEJDskqBnfQWF/heg4GX
rj65C0CPnxuYsn1VqQgxEpNYIXhLnYI4mghpAEkBrU/Gf550qdoNRjRKGA0FzyjF
UguszWif2/obA773OPt8i8CwEmxpQfkhX4j/X516DBSn87DkXkxWDethfGgYz7/9
y7t5IInaeUbAgNMIGa2uqNDMV/GXbmMkso1Pk3Xr2REV0L74uEzUCIQ1qIw6/uKt
jlTd3QCi2+0pwxgS5B8CAwEAAaOBmjCBlzAJBgNVHRMEAjAAMB0GA1UdDgQWBBR0
GMn5o/CUDy69XV++IUcFnNX+9zBJBgNVHSMEQjBAgBQnfmCa/wpKPss2ODA0nS3Y
CUPTtaEdpBswGTEXMBUGA1UEAwwOZGVlcGluLXFhLXRlYW2CCQDcGQT6MqRy9DAT
BgNVHSUEDDAKBggrBgEFBQcDAjALBgNVHQ8EBAMCB4AwDQYJKoZIhvcNAQELBQAD
ggEBAFtQKaBQDbx65i87BaXzl7GIr1aJzLRWQUyeM9t1Qz1MBywpPFMnW+YwT2Fk
XMFnXL6+ZSAsKTiFUiuMAVq1z67vt0rmZODmlF41aOD9wx1iKCeKQcks20//iR6t
QJqRs55xG5eJXQiBndu+3JqQArbxAEned2zO/CHeoETv9KRoT3KBYY81NNUPYW/6
uHZ6SvrbYsNre1lylquVi7X92AYmZPu5OMz0st6eD1X6hbnZ2FP0Jis7zZb5lVST
S8zQ2JDvBtsgkRPeUZeeD90hHLgsu7Z7SQx3O2hJz24ypOdC9tF+HVlaawNkH6Ki
Mtzi5fkPjdP9pRHJs1HFUde5BsU=
-----END CERTIFICATE-----
